target datalayout = "e-m:e-p270:32:32-p271:32:32-p272:64:64-i64:64-i128:128-f80:128-n8:16:32:64-S128"
target triple = "x86_64-pc-linux-gnu"

%struct.VduseVirtq = type { %struct.VduseRing, i16, i16, i16, i16, i8, i32, i32, i8, i32, ptr, ptr, i16, i64, ptr }
%struct.VduseRing = type { i32, i64, i64, i64, ptr, ptr, ptr }
%struct.VduseVirtqElement = type { i32, i32, i32, ptr, ptr }
%struct.vring_used = type { i16, i16, [0 x %struct.vring_used_elem] }
%struct.vring_used_elem = type { i32, i32 }
%struct.VduseVirtqLog = type { %struct.VduseVirtqLogInflight }
%struct.VduseVirtqLogInflight = type { i64, i16, i16, i16, i16, [0 x %struct.VduseDescStateSplit] }
%struct.VduseDescStateSplit = type { i8, [5 x i8], i16, i64 }

; Function Attrs: inlinehint nounwind uwtable
define internal zeroext i16 @__uint16_identity(i16 noundef zeroext %0) #5 {
  %2 = alloca i16, align 2
  store i16 %0, ptr %2, align 2
  %3 = load i16, ptr %2, align 2
  ret i16 %3
}

; Function Attrs: inlinehint nounwind uwtable
define internal void @vring_used_idx_set(ptr noundef %0, i16 noundef zeroext %1) #5 {
  %3 = alloca ptr, align 8
  %4 = alloca i16, align 2
  store ptr %0, ptr %3, align 8
  store i16 %1, ptr %4, align 2
  %5 = load i16, ptr %4, align 2
  %6 = call zeroext i16 @__uint16_identity(i16 noundef zeroext %5)
  %7 = load ptr, ptr %3, align 8
  %8 = getelementptr inbounds nuw %struct.VduseVirtq, ptr %7, i32 0, i32 0
  %9 = getelementptr inbounds nuw %struct.VduseRing, ptr %8, i32 0, i32 6
  %10 = load ptr, ptr %9, align 8
  %11 = getelementptr inbounds nuw %struct.vring_used, ptr %10, i32 0, i32 1
  store i16 %6, ptr %11, align 2
  %12 = load i16, ptr %4, align 2
  %13 = load ptr, ptr %3, align 8
  %14 = getelementptr inbounds nuw %struct.VduseVirtq, ptr %13, i32 0, i32 3
  store i16 %12, ptr %14, align 4
  ret void
}

; Function Attrs: inlinehint nounwind uwtable
define internal void @vring_used_write(ptr noundef %0, ptr noundef %1, i32 noundef %2) #5 {
  %4 = alloca ptr, align 8
  %5 = alloca ptr, align 8
  %6 = alloca i32, align 4
  %7 = alloca ptr, align 8
  store ptr %0, ptr %4, align 8
  store ptr %1, ptr %5, align 8
  store i32 %2, ptr %6, align 4
  call void @llvm.lifetime.start.p0(i64 8, ptr %7) #13
  %8 = load ptr, ptr %4, align 8
  %9 = getelementptr inbounds nuw %struct.VduseVirtq, ptr %8, i32 0, i32 0
  %10 = getelementptr inbounds nuw %struct.VduseRing, ptr %9, i32 0, i32 6
  %11 = load ptr, ptr %10, align 8
  store ptr %11, ptr %7, align 8
  %12 = load ptr, ptr %7, align 8
  %13 = getelementptr inbounds nuw %struct.vring_used, ptr %12, i32 0, i32 2
  %14 = load i32, ptr %6, align 4
  %15 = sext i32 %14 to i64
  %16 = getelementptr inbounds [0 x %struct.vring_used_elem], ptr %13, i64 0, i64 %15
  %17 = load ptr, ptr %5, align 8
  call void @llvm.memcpy.p0.p0.i64(ptr align 4 %16, ptr align 4 %17, i64 8, i1 false)
  call void @llvm.lifetime.end.p0(i64 8, ptr %7) #13
  ret void
}

; Function Attrs: inlinehint nounwind uwtable
define internal i32 @__uint32_identity(i32 noundef %0) #5 {
  %2 = alloca i32, align 4
  store i32 %0, ptr %2, align 4
  %3 = load i32, ptr %2, align 4
  ret i32 %3
}

; Function Attrs: nounwind uwtable
define internal i32 @vduse_queue_inflight_post_put(ptr noundef %0, i32 noundef %1) #0 {
  %3 = alloca ptr, align 8
  %4 = alloca i32, align 4
  store ptr %0, ptr %3, align 8
  store i32 %1, ptr %4, align 4
  %5 = load ptr, ptr %3, align 8
  %6 = getelementptr inbounds nuw %struct.VduseVirtq, ptr %5, i32 0, i32 14
  %7 = load ptr, ptr %6, align 8
  %8 = getelementptr inbounds nuw %struct.VduseVirtqLog, ptr %7, i32 0, i32 0
  %9 = getelementptr inbounds nuw %struct.VduseVirtqLogInflight, ptr %8, i32 0, i32 5
  %10 = load i32, ptr %4, align 4
  %11 = sext i32 %10 to i64
  %12 = getelementptr inbounds [0 x %struct.VduseDescStateSplit], ptr %9, i64 0, i64 %11
  %13 = getelementptr inbounds nuw %struct.VduseDescStateSplit, ptr %12, i32 0, i32 0
  store i8 0, ptr %13, align 8
  call void asm sideeffect "", "~{memory},~{dirflag},~{fpsr},~{flags}"() #13, !srcloc !11
  %14 = load ptr, ptr %3, align 8
  %15 = getelementptr inbounds nuw %struct.VduseVirtq, ptr %14, i32 0, i32 3
  %16 = load i16, ptr %15, align 4
  %17 = load ptr, ptr %3, align 8
  %18 = getelementptr inbounds nuw %struct.VduseVirtq, ptr %17, i32 0, i32 14
  %19 = load ptr, ptr %18, align 8
  %20 = getelementptr inbounds nuw %struct.VduseVirtqLog, ptr %19, i32 0, i32 0
  %21 = getelementptr inbounds nuw %struct.VduseVirtqLogInflight, ptr %20, i32 0, i32 4
  store i16 %16, ptr %21, align 2
  ret i32 0
}

; Function Attrs: nounwind uwtable
define internal void @vduse_queue_flush(ptr noundef %0, i32 noundef %1) #0 {
  %3 = alloca ptr, align 8
  %4 = alloca i32, align 4
  %5 = alloca i16, align 2
  %6 = alloca i16, align 2
  %7 = alloca i32, align 4
  store ptr %0, ptr %3, align 8
  store i32 %1, ptr %4, align 4
  call void @llvm.lifetime.start.p0(i64 2, ptr %5) #13
  store i16 0, ptr %5, align 2, !annotation !4
  call void @llvm.lifetime.start.p0(i64 2, ptr %6) #13
  store i16 0, ptr %6, align 2, !annotation !4
  %8 = load ptr, ptr %3, align 8
  %9 = getelementptr inbounds nuw %struct.VduseVirtq, ptr %8, i32 0, i32 0
  %10 = getelementptr inbounds nuw %struct.VduseRing, ptr %9, i32 0, i32 6
  %11 = load ptr, ptr %10, align 8
  %12 = icmp ne ptr %11, null
  %13 = xor i1 %12, true
  %14 = xor i1 %13, true
  %15 = xor i1 %14, true
  %16 = zext i1 %15 to i32
  %17 = sext i32 %16 to i64
  %18 = call i64 @llvm.expect.i64(i64 %17, i64 0)
  %19 = icmp ne i64 %18, 0
  br i1 %19, label %20, label %21

20:                                               ; preds = %2
  store i32 1, ptr %7, align 4
  br label %64

21:                                               ; preds = %2
  call void asm sideeffect "", "~{memory},~{dirflag},~{fpsr},~{flags}"() #13, !srcloc !10
  fence release
  %22 = load ptr, ptr %3, align 8
  %23 = getelementptr inbounds nuw %struct.VduseVirtq, ptr %22, i32 0, i32 3
  %24 = load i16, ptr %23, align 4
  store i16 %24, ptr %5, align 2
  %25 = load i16, ptr %5, align 2
  %26 = zext i16 %25 to i32
  %27 = load i32, ptr %4, align 4
  %28 = add i32 %26, %27
  %29 = trunc i32 %28 to i16
  store i16 %29, ptr %6, align 2
  %30 = load ptr, ptr %3, align 8
  %31 = load i16, ptr %6, align 2
  call void @vring_used_idx_set(ptr noundef %30, i16 noundef zeroext %31)
  %32 = load i32, ptr %4, align 4
  %33 = load ptr, ptr %3, align 8
  %34 = getelementptr inbounds nuw %struct.VduseVirtq, ptr %33, i32 0, i32 7
  %35 = load i32, ptr %34, align 8
  %36 = sub i32 %35, %32
  store i32 %36, ptr %34, align 8
  %37 = load i16, ptr %6, align 2
  %38 = zext i16 %37 to i32
  %39 = load ptr, ptr %3, align 8
  %40 = getelementptr inbounds nuw %struct.VduseVirtq, ptr %39, i32 0, i32 4
  %41 = load i16, ptr %40, align 2
  %42 = zext i16 %41 to i32
  %43 = sub i32 %38, %42
  %44 = trunc i32 %43 to i16
  %45 = sext i16 %44 to i32
  %46 = load i16, ptr %6, align 2
  %47 = zext i16 %46 to i32
  %48 = load i16, ptr %5, align 2
  %49 = zext i16 %48 to i32
  %50 = sub i32 %47, %49
  %51 = trunc i32 %50 to i16
  %52 = zext i16 %51 to i32
  %53 = icmp slt i32 %45, %52
  %54 = xor i1 %53, true
  %55 = xor i1 %54, true
  %56 = zext i1 %55 to i32
  %57 = sext i32 %56 to i64
  %58 = call i64 @llvm.expect.i64(i64 %57, i64 0)
  %59 = icmp ne i64 %58, 0
  br i1 %59, label %60, label %63

60:                                               ; preds = %21
  %61 = load ptr, ptr %3, align 8
  %62 = getelementptr inbounds nuw %struct.VduseVirtq, ptr %61, i32 0, i32 5
  store i8 0, ptr %62, align 8
  br label %63

63:                                               ; preds = %60, %21
  store i32 0, ptr %7, align 4
  br label %64

64:                                               ; preds = %63, %20
  call void @llvm.lifetime.end.p0(i64 2, ptr %6) #13
  call void @llvm.lifetime.end.p0(i64 2, ptr %5) #13
  %65 = load i32, ptr %7, align 4
  switch i32 %65, label %67 [
    i32 0, label %66
    i32 1, label %66
  ]

66:                                               ; preds = %64, %64
  ret void

67:                                               ; preds = %64
  unreachable
}

; Function Attrs: nounwind uwtable
define internal i32 @vduse_queue_inflight_pre_put(ptr noundef %0, i32 noundef %1) #0 {
  %3 = alloca ptr, align 8
  %4 = alloca i32, align 4
  store ptr %0, ptr %3, align 8
  store i32 %1, ptr %4, align 4
  %5 = load i32, ptr %4, align 4
  %6 = trunc i32 %5 to i16
  %7 = load ptr, ptr %3, align 8
  %8 = getelementptr inbounds nuw %struct.VduseVirtq, ptr %7, i32 0, i32 14
  %9 = load ptr, ptr %8, align 8
  %10 = getelementptr inbounds nuw %struct.VduseVirtqLog, ptr %9, i32 0, i32 0
  %11 = getelementptr inbounds nuw %struct.VduseVirtqLogInflight, ptr %10, i32 0, i32 3
  store i16 %6, ptr %11, align 4
  ret i32 0
}

; Function Attrs: nounwind uwtable
define internal void @vduse_queue_fill(ptr noundef %0, ptr noundef %1, i32 noundef %2, i32 noundef %3) #0 {
  %5 = alloca ptr, align 8
  %6 = alloca ptr, align 8
  %7 = alloca i32, align 4
  %8 = alloca i32, align 4
  %9 = alloca %struct.vring_used_elem, align 4
  %10 = alloca i32, align 4
  store ptr %0, ptr %5, align 8
  store ptr %1, ptr %6, align 8
  store i32 %2, ptr %7, align 4
  store i32 %3, ptr %8, align 4
  call void @llvm.lifetime.start.p0(i64 8, ptr %9) #13
  call void @llvm.memset.p0.i64(ptr align 4 %9, i8 0, i64 8, i1 false), !annotation !4
  %11 = load ptr, ptr %5, align 8
  %12 = getelementptr inbounds nuw %struct.VduseVirtq, ptr %11, i32 0, i32 0
  %13 = getelementptr inbounds nuw %struct.VduseRing, ptr %12, i32 0, i32 6
  %14 = load ptr, ptr %13, align 8
  %15 = icmp ne ptr %14, null
  %16 = xor i1 %15, true
  %17 = xor i1 %16, true
  %18 = xor i1 %17, true
  %19 = zext i1 %18 to i32
  %20 = sext i32 %19 to i64
  %21 = call i64 @llvm.expect.i64(i64 %20, i64 0)
  %22 = icmp ne i64 %21, 0
  br i1 %22, label %23, label %24

23:                                               ; preds = %4
  store i32 1, ptr %10, align 4
  br label %46

24:                                               ; preds = %4
  %25 = load i32, ptr %8, align 4
  %26 = load ptr, ptr %5, align 8
  %27 = getelementptr inbounds nuw %struct.VduseVirtq, ptr %26, i32 0, i32 3
  %28 = load i16, ptr %27, align 4
  %29 = zext i16 %28 to i32
  %30 = add i32 %25, %29
  %31 = load ptr, ptr %5, align 8
  %32 = getelementptr inbounds nuw %struct.VduseVirtq, ptr %31, i32 0, i32 0
  %33 = getelementptr inbounds nuw %struct.VduseRing, ptr %32, i32 0, i32 0
  %34 = load i32, ptr %33, align 8
  %35 = urem i32 %30, %34
  store i32 %35, ptr %8, align 4
  %36 = load ptr, ptr %6, align 8
  %37 = getelementptr inbounds nuw %struct.VduseVirtqElement, ptr %36, i32 0, i32 0
  %38 = load i32, ptr %37, align 8
  %39 = call i32 @__uint32_identity(i32 noundef %38)
  %40 = getelementptr inbounds nuw %struct.vring_used_elem, ptr %9, i32 0, i32 0
  store i32 %39, ptr %40, align 4
  %41 = load i32, ptr %7, align 4
  %42 = call i32 @__uint32_identity(i32 noundef %41)
  %43 = getelementptr inbounds nuw %struct.vring_used_elem, ptr %9, i32 0, i32 1
  store i32 %42, ptr %43, align 4
  %44 = load ptr, ptr %5, align 8
  %45 = load i32, ptr %8, align 4
  call void @vring_used_write(ptr noundef %44, ptr noundef %9, i32 noundef %45)
  store i32 0, ptr %10, align 4
  br label %46

46:                                               ; preds = %24, %23
  call void @llvm.lifetime.end.p0(i64 8, ptr %9) #13
  %47 = load i32, ptr %10, align 4
  switch i32 %47, label %49 [
    i32 0, label %48
    i32 1, label %48
  ]

48:                                               ; preds = %46, %46
  ret void

49:                                               ; preds = %46
  unreachable
}

; Function Attrs: nounwind uwtable
define dso_local void @vduse_queue_push(ptr noundef %0, ptr noundef %1, i32 noundef %2) #0 {
  %4 = alloca ptr, align 8
  %5 = alloca ptr, align 8
  %6 = alloca i32, align 4
  store ptr %0, ptr %4, align 8
  store ptr %1, ptr %5, align 8
  store i32 %2, ptr %6, align 4
  %7 = load ptr, ptr %4, align 8
  %8 = load ptr, ptr %5, align 8
  %9 = load i32, ptr %6, align 4
  call void @vduse_queue_fill(ptr noundef %7, ptr noundef %8, i32 noundef %9, i32 noundef 0)
  %10 = load ptr, ptr %4, align 8
  %11 = load ptr, ptr %5, align 8
  %12 = getelementptr inbounds nuw %struct.VduseVirtqElement, ptr %11, i32 0, i32 0
  %13 = load i32, ptr %12, align 8
  %14 = call i32 @vduse_queue_inflight_pre_put(ptr noundef %10, i32 noundef %13)
  %15 = load ptr, ptr %4, align 8
  call void @vduse_queue_flush(ptr noundef %15, i32 noundef 1)
  %16 = load ptr, ptr %4, align 8
  %17 = load ptr, ptr %5, align 8
  %18 = getelementptr inbounds nuw %struct.VduseVirtqElement, ptr %17, i32 0, i32 0
  %19 = load i32, ptr %18, align 8
  %20 = call i32 @vduse_queue_inflight_post_put(ptr noundef %16, i32 noundef %19)
  ret void
}