; Function Attrs: nounwind uwtable
define dso_local void @vduse_queue_push(ptr noundef captures(none) %0, ptr noundef readonly captures(none) %1, i32 noundef %2) local_unnamed_addr #2 {
  %4 = getelementptr inbounds nuw i8, ptr %0, i64 48
  %5 = load ptr, ptr %4, align 8
  %.not.i = icmp eq ptr %5, null
  br i1 %.not.i, label %vduse_queue_fill.exit, label %6, !prof !4

6:                                                ; preds = %3
  %7 = getelementptr inbounds nuw i8, ptr %0, i64 60
  %8 = load i16, ptr %7, align 4
  %9 = zext i16 %8 to i32
  %10 = load i32, ptr %0, align 8
  %11 = urem i32 %9, %10
  %12 = load i32, ptr %1, align 8
  %.sroa.5.0.insert.ext.i = zext i32 %2 to i64
  %.sroa.5.0.insert.shift.i = shl nuw i64 %.sroa.5.0.insert.ext.i, 32
  %.sroa.0.0.insert.ext.i = zext i32 %12 to i64
  %.sroa.0.0.insert.insert.i = or disjoint i64 %.sroa.5.0.insert.shift.i, %.sroa.0.0.insert.ext.i
  %13 = getelementptr inbounds nuw i8, ptr %5, i64 4
  %14 = zext nneg i32 %11 to i64
  %15 = getelementptr inbounds nuw [0 x %struct.vring_used_elem], ptr %13, i64 0, i64 %14
  store i64 %.sroa.0.0.insert.insert.i, ptr %15, align 4
  br label %vduse_queue_fill.exit

vduse_queue_fill.exit:                            ; preds = %3, %6
  %16 = load i32, ptr %1, align 8
  %17 = getelementptr i8, ptr %0, i64 120
  %.val = load ptr, ptr %17, align 8
  %18 = trunc i32 %16 to i16
  %19 = getelementptr inbounds nuw i8, ptr %.val, i64 12
  store i16 %18, ptr %19, align 4
  %20 = load ptr, ptr %4, align 8
  %.not.i7 = icmp eq ptr %20, null
  br i1 %.not.i7, label %vduse_queue_flush.exit, label %21, !prof !4

21:                                               ; preds = %vduse_queue_fill.exit
  tail call void asm sideeffect "", "~{memory},~{dirflag},~{fpsr},~{flags}"() #20, !srcloc !13
  fence release
  %22 = getelementptr inbounds nuw i8, ptr %0, i64 60
  %23 = load i16, ptr %22, align 4
  %24 = add i16 %23, 1
  %25 = load ptr, ptr %4, align 8
  %26 = getelementptr inbounds nuw i8, ptr %25, i64 2
  store i16 %24, ptr %26, align 2
  store i16 %24, ptr %22, align 4
  %27 = getelementptr inbounds nuw i8, ptr %0, i64 72
  %28 = load i32, ptr %27, align 8
  %29 = add i32 %28, -1
  store i32 %29, ptr %27, align 8
  %30 = getelementptr inbounds nuw i8, ptr %0, i64 62
  %31 = load i16, ptr %30, align 2
  %32 = sub i16 %24, %31
  %33 = icmp slt i16 %32, 1
  br i1 %33, label %34, label %vduse_queue_flush.exit, !prof !4

34:                                               ; preds = %21
  %35 = getelementptr inbounds nuw i8, ptr %0, i64 64
  store i8 0, ptr %35, align 8
  br label %vduse_queue_flush.exit

vduse_queue_flush.exit:                           ; preds = %vduse_queue_fill.exit, %21, %34
  %36 = load i32, ptr %1, align 8
  %37 = load ptr, ptr %17, align 8
  %38 = getelementptr inbounds nuw i8, ptr %37, i64 16
  %39 = sext i32 %36 to i64
  %40 = getelementptr inbounds [0 x %struct.VduseDescStateSplit], ptr %38, i64 0, i64 %39
  store i8 0, ptr %40, align 8
  tail call void asm sideeffect "", "~{memory},~{dirflag},~{fpsr},~{flags}"() #20, !srcloc !14
  %41 = getelementptr inbounds nuw i8, ptr %0, i64 60
  %42 = load i16, ptr %41, align 4
  %43 = load ptr, ptr %17, align 8
  %44 = getelementptr inbounds nuw i8, ptr %43, i64 14
  store i16 %42, ptr %44, align 2
  ret void
}